; Function Attrs: nounwind uwtable
define internal i32 @filter_frame(ptr noundef readonly captures(none) %0, ptr noundef %1) #1 {
  %3 = getelementptr inbounds nuw i8, ptr %0, i64 16
  %4 = load ptr, ptr %3, align 8, !tbaa !100
  %5 = getelementptr inbounds nuw i8, ptr %4, i64 56
  %6 = load ptr, ptr %5, align 8, !tbaa !107
  %7 = load ptr, ptr %6, align 8, !tbaa !78
  %8 = tail call fastcc ptr @apply_lut(ptr %4, ptr noundef %1)
  %.not = icmp eq ptr %8, null
  br i1 %.not, label %11, label %9

9:                                                ; preds = %2
  %10 = tail call i32 @ff_filter_frame(ptr noundef %7, ptr noundef nonnull %8) #21
  br label %11

11:                                               ; preds = %2, %9
  %.0 = phi i32 [ %10, %9 ], [ -12, %2 ]
  ret i32 %.0
}